target datalayout = "e-m:e-p270:32:32-p271:32:32-p272:64:64-i64:64-i128:128-f80:128-n8:16:32:64-S128"
target triple = "x86_64-pc-linux-gnu"

%"class.std::thread" = type { %"class.std::thread::id" }
%"class.std::thread::id" = type { i64 }
%"struct.std::atomic.32" = type { %"struct.std::__atomic_base.33" }
%"struct.std::__atomic_base.33" = type { i8 }

@_ZN4pbrtL12updateThreadE = internal global %"class.std::thread" zeroinitializer, align 8
@_ZN4pbrtL10exitThreadE = internal global %"struct.std::atomic.32" zeroinitializer, align 1

; Function Attrs: mustprogress nounwind uwtable
define linkonce_odr dso_local noundef i32 @_ZStanSt12memory_orderSt23__memory_order_modifier(i32 noundef %0, i32 noundef %1) #3 comdat {
  %3 = alloca i32, align 4
  %4 = alloca i32, align 4
  store i32 %0, ptr %3, align 4, !tbaa !254
  store i32 %1, ptr %4, align 4, !tbaa !256
  %5 = load i32, ptr %3, align 4, !tbaa !254
  %6 = load i32, ptr %4, align 4, !tbaa !256
  %7 = and i32 %5, %6
  ret i32 %7
}

; Function Attrs: inlinehint mustprogress nounwind uwtable
define linkonce_odr dso_local void @_ZSt4swapINSt6thread2idEENSt9enable_ifIXsr6__and_ISt6__not_ISt15__is_tuple_likeIT_EESt21is_move_constructibleIS5_ESt18is_move_assignableIS5_EEE5valueEvE4typeERS5_SE_(ptr noundef nonnull align 8 dereferenceable(8) %0, ptr noundef nonnull align 8 dereferenceable(8) %1) #12 comdat {
  %3 = alloca ptr, align 8
  %4 = alloca ptr, align 8
  %5 = alloca %"class.std::thread::id", align 8
  store ptr %0, ptr %3, align 8, !tbaa !168
  store ptr %1, ptr %4, align 8, !tbaa !168
  call void @llvm.lifetime.start.p0(i64 8, ptr %5) #13
  %6 = load ptr, ptr %3, align 8, !tbaa !168
  call void @llvm.memcpy.p0.p0.i64(ptr align 8 %5, ptr align 8 %6, i64 8, i1 false), !tbaa.struct !167
  %7 = load ptr, ptr %4, align 8, !tbaa !168
  %8 = load ptr, ptr %3, align 8, !tbaa !168
  call void @llvm.memcpy.p0.p0.i64(ptr align 8 %8, ptr align 8 %7, i64 8, i1 false), !tbaa.struct !167
  %9 = load ptr, ptr %4, align 8, !tbaa !168
  call void @llvm.memcpy.p0.p0.i64(ptr align 8 %9, ptr align 8 %5, i64 8, i1 false), !tbaa.struct !167
  call void @llvm.lifetime.end.p0(i64 8, ptr %5) #13
  ret void
}

; Function Attrs: alwaysinline mustprogress nounwind uwtable
define linkonce_odr dso_local void @_ZNSt13__atomic_baseIbE5storeEbSt12memory_order(ptr noundef nonnull align 1 dereferenceable(1) %0, i1 noundef zeroext %1, i32 noundef %2) #17 comdat align 2 {
  %4 = alloca ptr, align 8
  %5 = alloca i8, align 1
  %6 = alloca i32, align 4
  %7 = alloca i32, align 4
  %8 = alloca i8, align 1
  store ptr %0, ptr %4, align 8, !tbaa !252
  %9 = zext i1 %1 to i8
  store i8 %9, ptr %5, align 1, !tbaa !174
  store i32 %2, ptr %6, align 4, !tbaa !254
  %10 = load ptr, ptr %4, align 8
  call void @llvm.lifetime.start.p0(i64 4, ptr %7) #13
  %11 = load i32, ptr %6, align 4, !tbaa !254
  %12 = call noundef i32 @_ZStanSt12memory_orderSt23__memory_order_modifier(i32 noundef %11, i32 noundef 65535)
  store i32 %12, ptr %7, align 4, !tbaa !254
  br label %13

13:                                               ; preds = %3
  br label %14

14:                                               ; preds = %13
  br label %15

15:                                               ; preds = %14
  br label %16

16:                                               ; preds = %15
  br label %17

17:                                               ; preds = %16
  br label %18

18:                                               ; preds = %17
  br label %19

19:                                               ; preds = %18
  br label %20

20:                                               ; preds = %19
  br label %21

21:                                               ; preds = %20
  %22 = getelementptr inbounds nuw %"struct.std::__atomic_base.33", ptr %10, i32 0, i32 0
  %23 = load i32, ptr %6, align 4, !tbaa !254
  %24 = load i8, ptr %5, align 1, !tbaa !174, !range !132, !noundef !133
  %25 = trunc i8 %24 to i1
  %26 = zext i1 %25 to i8
  store i8 %26, ptr %8, align 1, !tbaa !174
  switch i32 %23, label %27 [
    i32 3, label %29
    i32 5, label %31
  ]

27:                                               ; preds = %21
  %28 = load i8, ptr %8, align 1
  store atomic i8 %28, ptr %22 monotonic, align 1
  br label %33

29:                                               ; preds = %21
  %30 = load i8, ptr %8, align 1
  store atomic i8 %30, ptr %22 release, align 1
  br label %33

31:                                               ; preds = %21
  %32 = load i8, ptr %8, align 1
  store atomic i8 %32, ptr %22 seq_cst, align 1
  br label %33

33:                                               ; preds = %31, %29, %27
  call void @llvm.lifetime.end.p0(i64 4, ptr %7) #13
  ret void
}

; Function Attrs: mustprogress nounwind uwtable
define linkonce_odr dso_local void @_ZNSt6thread4swapERS_(ptr noundef nonnull align 8 dereferenceable(8) %0, ptr noundef nonnull align 8 dereferenceable(8) %1) #3 comdat align 2 {
  %3 = alloca ptr, align 8
  %4 = alloca ptr, align 8
  store ptr %0, ptr %3, align 8, !tbaa !156
  store ptr %1, ptr %4, align 8, !tbaa !156
  %5 = load ptr, ptr %3, align 8
  %6 = getelementptr inbounds nuw %"class.std::thread", ptr %5, i32 0, i32 0
  %7 = load ptr, ptr %4, align 8, !tbaa !156
  %8 = getelementptr inbounds nuw %"class.std::thread", ptr %7, i32 0, i32 0
  call void @_ZSt4swapINSt6thread2idEENSt9enable_ifIXsr6__and_ISt6__not_ISt15__is_tuple_likeIT_EESt21is_move_constructibleIS5_ESt18is_move_assignableIS5_EEE5valueEvE4typeERS5_SE_(ptr noundef nonnull align 8 dereferenceable(8) %6, ptr noundef nonnull align 8 dereferenceable(8) %8) #13
  ret void
}

; Function Attrs: alwaysinline mustprogress noreturn nounwind uwtable
define linkonce_odr dso_local void @_ZSt11__terminatev() #16 comdat {
  call void @_ZSt9terminatev() #22
  unreachable
}

; Function Attrs: mustprogress nounwind uwtable
define linkonce_odr dso_local noundef zeroext i1 @_ZNKSt6thread8joinableEv(ptr noundef nonnull align 8 dereferenceable(8) %0) #3 comdat align 2 {
  %2 = alloca ptr, align 8
  %3 = alloca %"class.std::thread::id", align 8
  %4 = alloca %"class.std::thread::id", align 8
  store ptr %0, ptr %2, align 8, !tbaa !156
  %5 = load ptr, ptr %2, align 8
  %6 = getelementptr inbounds nuw %"class.std::thread", ptr %5, i32 0, i32 0
  call void @llvm.memcpy.p0.p0.i64(ptr align 8 %3, ptr align 8 %6, i64 8, i1 false), !tbaa.struct !167
  call void @_ZNSt6thread2idC2Ev(ptr noundef nonnull align 8 dereferenceable(8) %4) #13
  %7 = getelementptr inbounds nuw %"class.std::thread::id", ptr %3, i32 0, i32 0
  %8 = load i64, ptr %7, align 8
  %9 = getelementptr inbounds nuw %"class.std::thread::id", ptr %4, i32 0, i32 0
  %10 = load i64, ptr %9, align 8
  %11 = call noundef zeroext i1 @_ZSteqNSt6thread2idES0_(i64 %8, i64 %10) #13
  %12 = xor i1 %11, true
  ret i1 %12
}

; Function Attrs: mustprogress nounwind uwtable
define linkonce_odr dso_local noundef zeroext i1 @_ZNSt13__atomic_baseIbEaSEb(ptr noundef nonnull align 1 dereferenceable(1) %0, i1 noundef zeroext %1) #3 comdat align 2 {
  %3 = alloca ptr, align 8
  %4 = alloca i8, align 1
  store ptr %0, ptr %3, align 8, !tbaa !252
  %5 = zext i1 %1 to i8
  store i8 %5, ptr %4, align 1, !tbaa !174
  %6 = load ptr, ptr %3, align 8
  %7 = load i8, ptr %4, align 1, !tbaa !174, !range !132, !noundef !133
  %8 = trunc i8 %7 to i1
  call void @_ZNSt13__atomic_baseIbE5storeEbSt12memory_order(ptr noundef nonnull align 1 dereferenceable(1) %6, i1 noundef zeroext %8, i32 noundef 5) #13
  %9 = load i8, ptr %4, align 1, !tbaa !174, !range !132, !noundef !133
  %10 = trunc i8 %9 to i1
  ret i1 %10
}

; Function Attrs: inlinehint mustprogress nounwind uwtable
define linkonce_odr dso_local noundef zeroext i1 @_ZSteqNSt6thread2idES0_(i64 %0, i64 %1) #12 comdat {
  %3 = alloca %"class.std::thread::id", align 8
  %4 = alloca %"class.std::thread::id", align 8
  %5 = getelementptr inbounds nuw %"class.std::thread::id", ptr %3, i32 0, i32 0
  store i64 %0, ptr %5, align 8
  %6 = getelementptr inbounds nuw %"class.std::thread::id", ptr %4, i32 0, i32 0
  store i64 %1, ptr %6, align 8
  %7 = getelementptr inbounds nuw %"class.std::thread::id", ptr %3, i32 0, i32 0
  %8 = load i64, ptr %7, align 8, !tbaa !170
  %9 = getelementptr inbounds nuw %"class.std::thread::id", ptr %4, i32 0, i32 0
  %10 = load i64, ptr %9, align 8, !tbaa !170
  %11 = icmp eq i64 %8, %10
  ret i1 %11
}

; Function Attrs: mustprogress nounwind uwtable
define linkonce_odr dso_local void @_ZNSt6threadD2Ev(ptr noundef nonnull align 8 dereferenceable(8) %0) unnamed_addr #3 comdat align 2 {
  %2 = alloca ptr, align 8
  store ptr %0, ptr %2, align 8, !tbaa !156
  %3 = load ptr, ptr %2, align 8
  %4 = call noundef zeroext i1 @_ZNKSt6thread8joinableEv(ptr noundef nonnull align 8 dereferenceable(8) %3) #13
  br i1 %4, label %5, label %6

5:                                                ; preds = %1
  call void @_ZSt11__terminatev() #22
  unreachable

6:                                                ; preds = %1
  ret void
}

; Function Attrs: mustprogress nounwind uwtable
define linkonce_odr dso_local noundef nonnull align 8 dereferenceable(8) ptr @_ZNSt6threadaSEOS_(ptr noundef nonnull align 8 dereferenceable(8) %0, ptr noundef nonnull align 8 dereferenceable(8) %1) #3 comdat align 2 {
  %3 = alloca ptr, align 8
  %4 = alloca ptr, align 8
  store ptr %0, ptr %3, align 8, !tbaa !156
  store ptr %1, ptr %4, align 8, !tbaa !156
  %5 = load ptr, ptr %3, align 8
  %6 = call noundef zeroext i1 @_ZNKSt6thread8joinableEv(ptr noundef nonnull align 8 dereferenceable(8) %5) #13
  br i1 %6, label %7, label %8

7:                                                ; preds = %2
  call void @_ZSt11__terminatev() #22
  unreachable

8:                                                ; preds = %2
  %9 = load ptr, ptr %4, align 8, !tbaa !156
  call void @_ZNSt6thread4swapERS_(ptr noundef nonnull align 8 dereferenceable(8) %5, ptr noundef nonnull align 8 dereferenceable(8) %9) #13
  ret ptr %5
}

; Function Attrs: mustprogress nounwind uwtable
define linkonce_odr dso_local void @_ZNSt6threadC2Ev(ptr noundef nonnull align 8 dereferenceable(8) %0) unnamed_addr #3 comdat align 2 {
  %2 = alloca ptr, align 8
  store ptr %0, ptr %2, align 8, !tbaa !156
  %3 = load ptr, ptr %2, align 8
  %4 = getelementptr inbounds nuw %"class.std::thread", ptr %3, i32 0, i32 0
  call void @_ZNSt6thread2idC2Ev(ptr noundef nonnull align 8 dereferenceable(8) %4) #13
  ret void
}

; Function Attrs: mustprogress nounwind uwtable
define linkonce_odr dso_local noundef zeroext i1 @_ZNSt6atomicIbEaSEb(ptr noundef nonnull align 1 dereferenceable(1) %0, i1 noundef zeroext %1) #3 comdat align 2 {
  %3 = alloca ptr, align 8
  %4 = alloca i8, align 1
  store ptr %0, ptr %3, align 8, !tbaa !172
  %5 = zext i1 %1 to i8
  store i8 %5, ptr %4, align 1, !tbaa !174
  %6 = load ptr, ptr %3, align 8
  %7 = getelementptr inbounds nuw %"struct.std::atomic.32", ptr %6, i32 0, i32 0
  %8 = load i8, ptr %4, align 1, !tbaa !174, !range !132, !noundef !133
  %9 = trunc i8 %8 to i1
  %10 = call noundef zeroext i1 @_ZNSt13__atomic_baseIbEaSEb(ptr noundef nonnull align 1 dereferenceable(1) %7, i1 noundef zeroext %9) #13
  ret i1 %10
}

; Function Attrs: inlinehint mustprogress nounwind uwtable
define linkonce_odr dso_local noundef zeroext i1 @_ZStneNSt6thread2idES0_(i64 %0, i64 %1) #12 comdat {
  %3 = alloca %"class.std::thread::id", align 8
  %4 = alloca %"class.std::thread::id", align 8
  %5 = alloca %"class.std::thread::id", align 8
  %6 = alloca %"class.std::thread::id", align 8
  %7 = getelementptr inbounds nuw %"class.std::thread::id", ptr %3, i32 0, i32 0
  store i64 %0, ptr %7, align 8
  %8 = getelementptr inbounds nuw %"class.std::thread::id", ptr %4, i32 0, i32 0
  store i64 %1, ptr %8, align 8
  call void @llvm.memcpy.p0.p0.i64(ptr align 8 %5, ptr align 8 %3, i64 8, i1 false), !tbaa.struct !167
  call void @llvm.memcpy.p0.p0.i64(ptr align 8 %6, ptr align 8 %4, i64 8, i1 false), !tbaa.struct !167
  %9 = getelementptr inbounds nuw %"class.std::thread::id", ptr %5, i32 0, i32 0
  %10 = load i64, ptr %9, align 8
  %11 = getelementptr inbounds nuw %"class.std::thread::id", ptr %6, i32 0, i32 0
  %12 = load i64, ptr %11, align 8
  %13 = call noundef zeroext i1 @_ZSteqNSt6thread2idES0_(i64 %10, i64 %12) #13
  %14 = xor i1 %13, true
  ret i1 %14
}

; Function Attrs: mustprogress nounwind uwtable
define linkonce_odr dso_local void @_ZNSt6thread2idC2Ev(ptr noundef nonnull align 8 dereferenceable(8) %0) unnamed_addr #3 comdat align 2 {
  %2 = alloca ptr, align 8
  store ptr %0, ptr %2, align 8, !tbaa !168
  %3 = load ptr, ptr %2, align 8
  %4 = getelementptr inbounds nuw %"class.std::thread::id", ptr %3, i32 0, i32 0
  store i64 0, ptr %4, align 8, !tbaa !170
  ret void
}

; Function Attrs: mustprogress nounwind uwtable
define linkonce_odr dso_local i64 @_ZNKSt6thread6get_idEv(ptr noundef nonnull align 8 dereferenceable(8) %0) #3 comdat align 2 {
  %2 = alloca %"class.std::thread::id", align 8
  %3 = alloca ptr, align 8
  store ptr %0, ptr %3, align 8, !tbaa !156
  %4 = load ptr, ptr %3, align 8
  %5 = getelementptr inbounds nuw %"class.std::thread", ptr %4, i32 0, i32 0
  call void @llvm.memcpy.p0.p0.i64(ptr align 8 %2, ptr align 8 %5, i64 8, i1 false), !tbaa.struct !167
  %6 = getelementptr inbounds nuw %"class.std::thread::id", ptr %2, i32 0, i32 0
  %7 = load i64, ptr %6, align 8
  ret i64 %7
}

; Function Attrs: mustprogress uwtable
define dso_local void @_ZN4pbrt27DisconnectFromDisplayServerEv() #1 {
  %1 = alloca %"class.std::thread::id", align 8
  %2 = alloca %"class.std::thread::id", align 8
  %3 = alloca %"class.std::thread", align 8
  %4 = call i64 @_ZNKSt6thread6get_idEv(ptr noundef nonnull align 8 dereferenceable(8) @_ZN4pbrtL12updateThreadE) #13
  %5 = getelementptr inbounds nuw %"class.std::thread::id", ptr %1, i32 0, i32 0
  store i64 %4, ptr %5, align 8
  call void @_ZNSt6thread2idC2Ev(ptr noundef nonnull align 8 dereferenceable(8) %2) #13
  %6 = getelementptr inbounds nuw %"class.std::thread::id", ptr %1, i32 0, i32 0
  %7 = load i64, ptr %6, align 8
  %8 = getelementptr inbounds nuw %"class.std::thread::id", ptr %2, i32 0, i32 0
  %9 = load i64, ptr %8, align 8
  %10 = call noundef zeroext i1 @_ZStneNSt6thread2idES0_(i64 %7, i64 %9) #13
  br i1 %10, label %11, label %15

11:                                               ; preds = %0
  %12 = call noundef zeroext i1 @_ZNSt6atomicIbEaSEb(ptr noundef nonnull align 1 dereferenceable(1) @_ZN4pbrtL10exitThreadE, i1 noundef zeroext true) #13
  call void @_ZNSt6thread4joinEv(ptr noundef nonnull align 8 dereferenceable(8) @_ZN4pbrtL12updateThreadE)
  call void @llvm.lifetime.start.p0(i64 8, ptr %3) #13
  call void @llvm.memset.p0.i64(ptr align 8 %3, i8 0, i64 8, i1 false)
  call void @_ZNSt6threadC2Ev(ptr noundef nonnull align 8 dereferenceable(8) %3) #13
  %13 = call noundef nonnull align 8 dereferenceable(8) ptr @_ZNSt6threadaSEOS_(ptr noundef nonnull align 8 dereferenceable(8) @_ZN4pbrtL12updateThreadE, ptr noundef nonnull align 8 dereferenceable(8) %3) #13
  call void @_ZNSt6threadD2Ev(ptr noundef nonnull align 8 dereferenceable(8) %3) #13
  call void @llvm.lifetime.end.p0(i64 8, ptr %3) #13
  %14 = call noundef zeroext i1 @_ZNSt6atomicIbEaSEb(ptr noundef nonnull align 1 dereferenceable(1) @_ZN4pbrtL10exitThreadE, i1 noundef zeroext false) #13
  br label %15

15:                                               ; preds = %11, %0
  ret void
}