; Function Attrs: mustprogress uwtable
define dso_local void @_ZN4pbrt27DisconnectFromDisplayServerEv() local_unnamed_addr #1 {
  %.sroa.0.0.copyload.i = load i64, ptr @_ZN4pbrtL12updateThreadE, align 8, !tbaa !19
  %.not = icmp eq i64 %.sroa.0.0.copyload.i, 0
  br i1 %.not, label %3, label %1

1:                                                ; preds = %0
  store atomic i8 1, ptr @_ZN4pbrtL10exitThreadE.0 seq_cst, align 1
  tail call void @_ZNSt6thread4joinEv(ptr noundef nonnull align 8 dereferenceable(8) @_ZN4pbrtL12updateThreadE)
  %.sroa.0.0.copyload.i.i = load i64, ptr @_ZN4pbrtL12updateThreadE, align 8, !tbaa !19
  %.not.i = icmp eq i64 %.sroa.0.0.copyload.i.i, 0
  br i1 %.not.i, label %_ZNSt6threadD2Ev.exit, label %2

2:                                                ; preds = %1
  tail call void @_ZSt9terminatev() #28
  unreachable

_ZNSt6threadD2Ev.exit:                            ; preds = %1
  store atomic i8 0, ptr @_ZN4pbrtL10exitThreadE.0 seq_cst, align 1
  br label %3

3:                                                ; preds = %_ZNSt6threadD2Ev.exit, %0
  ret void
}